target datalayout = "e-m:e-p270:32:32-p271:32:32-p272:64:64-i64:64-i128:128-f80:128-n8:16:32:64-S128"
target triple = "x86_64-unknown-linux-gnu"

@.str.8 = private unnamed_addr constant [8 x i8] c" bytes\0A\00", align 1
@.str.11 = private unnamed_addr constant [20 x i8] c"garbage collecting \00", align 1
@.str.12 = private unnamed_addr constant [16 x i8] c" bytes down to \00", align 1

; Function Attrs: mustprogress uwtable
define hidden void @_ZN7datalog19sparse_table_plugin15garbage_collectEv(ptr noundef nonnull align 8 dereferenceable(56) %this) #4 align 2 {
entry:
  %this.addr = alloca ptr, align 8
  store ptr %this, ptr %this.addr, align 8
  %this1 = load ptr, ptr %this.addr, align 8
  %call = call noundef i32 @_Z19get_verbosity_levelv()
  %cmp = icmp uge i32 %call, 2
  br i1 %cmp, label %if.then, label %if.end14

if.then:                                          ; preds = %entry
  %call2 = call noundef zeroext i1 @_Z11is_threadedv()
  br i1 %call2, label %if.then3, label %if.else

if.then3:                                         ; preds = %if.then
  call void @_Z12verbose_lockv()
  %call4 = call noundef nonnull align 8 dereferenceable(8) ptr @_Z14verbose_streamv()
  %call5 = call noundef nonnull align 8 dereferenceable(8) ptr @_ZStlsISt11char_traitsIcEERSt13basic_ostreamIcT_ES5_PKc(ptr noundef nonnull align 8 dereferenceable(8) %call4, ptr noundef @.str.11)
  %call6 = call noundef i64 @_ZN6memory19get_allocation_sizeEv()
  %call7 = call noundef nonnull align 8 dereferenceable(8) ptr @_ZNSolsEy(ptr noundef nonnull align 8 dereferenceable(8) %call5, i64 noundef %call6)
  %call8 = call noundef nonnull align 8 dereferenceable(8) ptr @_ZStlsISt11char_traitsIcEERSt13basic_ostreamIcT_ES5_PKc(ptr noundef nonnull align 8 dereferenceable(8) %call7, ptr noundef @.str.12)
  call void @_Z14verbose_unlockv()
  br label %if.end

if.else:                                          ; preds = %if.then
  %call9 = call noundef nonnull align 8 dereferenceable(8) ptr @_Z14verbose_streamv()
  %call10 = call noundef nonnull align 8 dereferenceable(8) ptr @_ZStlsISt11char_traitsIcEERSt13basic_ostreamIcT_ES5_PKc(ptr noundef nonnull align 8 dereferenceable(8) %call9, ptr noundef @.str.11)
  %call11 = call noundef i64 @_ZN6memory19get_allocation_sizeEv()
  %call12 = call noundef nonnull align 8 dereferenceable(8) ptr @_ZNSolsEy(ptr noundef nonnull align 8 dereferenceable(8) %call10, i64 noundef %call11)
  %call13 = call noundef nonnull align 8 dereferenceable(8) ptr @_ZStlsISt11char_traitsIcEERSt13basic_ostreamIcT_ES5_PKc(ptr noundef nonnull align 8 dereferenceable(8) %call12, ptr noundef @.str.12)
  br label %if.end

if.end:                                           ; preds = %if.else, %if.then3
  br label %if.end14

if.end14:                                         ; preds = %if.end, %entry
  call void @_ZN7datalog19sparse_table_plugin5resetEv(ptr noundef nonnull align 8 dereferenceable(56) %this1)
  %call15 = call noundef i32 @_Z19get_verbosity_levelv()
  %cmp16 = icmp uge i32 %call15, 2
  br i1 %cmp16, label %if.then17, label %if.end30

if.then17:                                        ; preds = %if.end14
  %call18 = call noundef zeroext i1 @_Z11is_threadedv()
  br i1 %call18, label %if.then19, label %if.else24

if.then19:                                        ; preds = %if.then17
  call void @_Z12verbose_lockv()
  %call20 = call noundef nonnull align 8 dereferenceable(8) ptr @_Z14verbose_streamv()
  %call21 = call noundef i64 @_ZN6memory19get_allocation_sizeEv()
  %call22 = call noundef nonnull align 8 dereferenceable(8) ptr @_ZNSolsEy(ptr noundef nonnull align 8 dereferenceable(8) %call20, i64 noundef %call21)
  %call23 = call noundef nonnull align 8 dereferenceable(8) ptr @_ZStlsISt11char_traitsIcEERSt13basic_ostreamIcT_ES5_PKc(ptr noundef nonnull align 8 dereferenceable(8) %call22, ptr noundef @.str.8)
  call void @_Z14verbose_unlockv()
  br label %if.end29

if.else24:                                        ; preds = %if.then17
  %call25 = call noundef nonnull align 8 dereferenceable(8) ptr @_Z14verbose_streamv()
  %call26 = call noundef i64 @_ZN6memory19get_allocation_sizeEv()
  %call27 = call noundef nonnull align 8 dereferenceable(8) ptr @_ZNSolsEy(ptr noundef nonnull align 8 dereferenceable(8) %call25, i64 noundef %call26)
  %call28 = call noundef nonnull align 8 dereferenceable(8) ptr @_ZStlsISt11char_traitsIcEERSt13basic_ostreamIcT_ES5_PKc(ptr noundef nonnull align 8 dereferenceable(8) %call27, ptr noundef @.str.8)
  br label %if.end29

if.end29:                                         ; preds = %if.else24, %if.then19
  br label %if.end30

if.end30:                                         ; preds = %if.end29, %if.end14
  ret void
}