; Function Attrs: mustprogress uwtable
define hidden void @_ZN7datalog19sparse_table_plugin15garbage_collectEv(ptr noundef nonnull align 8 dereferenceable(56) %this) local_unnamed_addr #3 align 2 {
entry:
  %call = tail call noundef i32 @_Z19get_verbosity_levelv()
  %cmp = icmp ugt i32 %call, 1
  br i1 %cmp, label %if.then, label %if.end14

if.then:                                          ; preds = %entry
  %call2 = tail call noundef zeroext i1 @_Z11is_threadedv()
  br i1 %call2, label %if.then3, label %if.else

if.then3:                                         ; preds = %if.then
  tail call void @_Z12verbose_lockv()
  %call4 = tail call noundef nonnull align 8 dereferenceable(8) ptr @_Z14verbose_streamv()
  %call5 = tail call noundef nonnull align 8 dereferenceable(8) ptr @_ZStlsISt11char_traitsIcEERSt13basic_ostreamIcT_ES5_PKc(ptr noundef nonnull align 8 dereferenceable(8) %call4, ptr noundef nonnull @.str.11)
  %call6 = tail call noundef i64 @_ZN6memory19get_allocation_sizeEv()
  %call7 = tail call noundef nonnull align 8 dereferenceable(8) ptr @_ZNSolsEy(ptr noundef nonnull align 8 dereferenceable(8) %call5, i64 noundef %call6)
  %call8 = tail call noundef nonnull align 8 dereferenceable(8) ptr @_ZStlsISt11char_traitsIcEERSt13basic_ostreamIcT_ES5_PKc(ptr noundef nonnull align 8 dereferenceable(8) %call7, ptr noundef nonnull @.str.12)
  tail call void @_Z14verbose_unlockv()
  br label %if.end14

if.else:                                          ; preds = %if.then
  %call9 = tail call noundef nonnull align 8 dereferenceable(8) ptr @_Z14verbose_streamv()
  %call10 = tail call noundef nonnull align 8 dereferenceable(8) ptr @_ZStlsISt11char_traitsIcEERSt13basic_ostreamIcT_ES5_PKc(ptr noundef nonnull align 8 dereferenceable(8) %call9, ptr noundef nonnull @.str.11)
  %call11 = tail call noundef i64 @_ZN6memory19get_allocation_sizeEv()
  %call12 = tail call noundef nonnull align 8 dereferenceable(8) ptr @_ZNSolsEy(ptr noundef nonnull align 8 dereferenceable(8) %call10, i64 noundef %call11)
  %call13 = tail call noundef nonnull align 8 dereferenceable(8) ptr @_ZStlsISt11char_traitsIcEERSt13basic_ostreamIcT_ES5_PKc(ptr noundef nonnull align 8 dereferenceable(8) %call12, ptr noundef nonnull @.str.12)
  br label %if.end14

if.end14:                                         ; preds = %if.then3, %if.else, %entry
  tail call void @_ZN7datalog19sparse_table_plugin5resetEv(ptr noundef nonnull align 8 dereferenceable(56) %this)
  %call15 = tail call noundef i32 @_Z19get_verbosity_levelv()
  %cmp16 = icmp ugt i32 %call15, 1
  br i1 %cmp16, label %if.then17, label %if.end30

if.then17:                                        ; preds = %if.end14
  %call18 = tail call noundef zeroext i1 @_Z11is_threadedv()
  br i1 %call18, label %if.then19, label %if.else24

if.then19:                                        ; preds = %if.then17
  tail call void @_Z12verbose_lockv()
  %call20 = tail call noundef nonnull align 8 dereferenceable(8) ptr @_Z14verbose_streamv()
  %call21 = tail call noundef i64 @_ZN6memory19get_allocation_sizeEv()
  %call22 = tail call noundef nonnull align 8 dereferenceable(8) ptr @_ZNSolsEy(ptr noundef nonnull align 8 dereferenceable(8) %call20, i64 noundef %call21)
  %call23 = tail call noundef nonnull align 8 dereferenceable(8) ptr @_ZStlsISt11char_traitsIcEERSt13basic_ostreamIcT_ES5_PKc(ptr noundef nonnull align 8 dereferenceable(8) %call22, ptr noundef nonnull @.str.8)
  tail call void @_Z14verbose_unlockv()
  br label %if.end30

if.else24:                                        ; preds = %if.then17
  %call25 = tail call noundef nonnull align 8 dereferenceable(8) ptr @_Z14verbose_streamv()
  %call26 = tail call noundef i64 @_ZN6memory19get_allocation_sizeEv()
  %call27 = tail call noundef nonnull align 8 dereferenceable(8) ptr @_ZNSolsEy(ptr noundef nonnull align 8 dereferenceable(8) %call25, i64 noundef %call26)
  %call28 = tail call noundef nonnull align 8 dereferenceable(8) ptr @_ZStlsISt11char_traitsIcEERSt13basic_ostreamIcT_ES5_PKc(ptr noundef nonnull align 8 dereferenceable(8) %call27, ptr noundef nonnull @.str.8)
  br label %if.end30

if.end30:                                         ; preds = %if.then19, %if.else24, %if.end14
  ret void
}